; Function Attrs: mustprogress uwtable
define noundef ptr @_ZN8tinyxml27XMLNode14InsertEndChildEPS0_(ptr noundef nonnull align 8 dereferenceable(104) %0, ptr noundef %1) local_unnamed_addr #4 align 2 {
  %3 = getelementptr inbounds nuw i8, ptr %1, i64 8
  %4 = load ptr, ptr %3, align 8, !tbaa !71
  %5 = getelementptr inbounds nuw i8, ptr %0, i64 8
  %6 = load ptr, ptr %5, align 8, !tbaa !71
  %.not = icmp eq ptr %4, %6
  br i1 %.not, label %7, label %62

7:                                                ; preds = %2
  %8 = getelementptr inbounds nuw i8, ptr %1, i64 16
  %9 = load ptr, ptr %8, align 8, !tbaa !72
  %.not.i = icmp eq ptr %9, null
  br i1 %.not.i, label %31, label %10

10:                                               ; preds = %7
  %11 = getelementptr inbounds nuw i8, ptr %9, i64 56
  %12 = load ptr, ptr %11, align 8, !tbaa !76
  %13 = icmp eq ptr %1, %12
  br i1 %13, label %14, label %17

14:                                               ; preds = %10
  %15 = getelementptr inbounds nuw i8, ptr %12, i64 80
  %16 = load ptr, ptr %15, align 8, !tbaa !77
  store ptr %16, ptr %11, align 8, !tbaa !76
  br label %17

17:                                               ; preds = %14, %10
  %18 = getelementptr inbounds nuw i8, ptr %9, i64 64
  %19 = load ptr, ptr %18, align 8, !tbaa !78
  %20 = icmp eq ptr %1, %19
  br i1 %20, label %21, label %24

21:                                               ; preds = %17
  %22 = getelementptr inbounds nuw i8, ptr %19, i64 72
  %23 = load ptr, ptr %22, align 8, !tbaa !79
  store ptr %23, ptr %18, align 8, !tbaa !78
  br label %24

24:                                               ; preds = %21, %17
  %25 = getelementptr inbounds nuw i8, ptr %1, i64 72
  %26 = load ptr, ptr %25, align 8, !tbaa !79
  %.not.i.i = icmp eq ptr %26, null
  %.phi.trans.insert.i.i = getelementptr inbounds nuw i8, ptr %1, i64 80
  %.pre.i.i = load ptr, ptr %.phi.trans.insert.i.i, align 8, !tbaa !77
  br i1 %.not.i.i, label %._crit_edge.i.i, label %27

27:                                               ; preds = %24
  %28 = getelementptr inbounds nuw i8, ptr %26, i64 80
  store ptr %.pre.i.i, ptr %28, align 8, !tbaa !77
  br label %._crit_edge.i.i

._crit_edge.i.i:                                  ; preds = %27, %24
  %.not15.i.i = icmp eq ptr %.pre.i.i, null
  br i1 %.not15.i.i, label %_ZN8tinyxml27XMLNode6UnlinkEPS0_.exit.i, label %29

29:                                               ; preds = %._crit_edge.i.i
  %30 = getelementptr inbounds nuw i8, ptr %.pre.i.i, i64 72
  store ptr %26, ptr %30, align 8, !tbaa !79
  br label %_ZN8tinyxml27XMLNode6UnlinkEPS0_.exit.i

_ZN8tinyxml27XMLNode6UnlinkEPS0_.exit.i:          ; preds = %29, %._crit_edge.i.i
  tail call void @llvm.memset.p0.i64(ptr noundef nonnull align 8 dereferenceable(16) %25, i8 0, i64 16, i1 false)
  br label %_ZNK8tinyxml27XMLNode19InsertChildPreambleEPS0_.exit

31:                                               ; preds = %7
  %32 = getelementptr inbounds nuw i8, ptr %4, i64 260
  %33 = load i32, ptr %32, align 4, !tbaa !66
  %34 = icmp sgt i32 %33, 0
  br i1 %34, label %.lr.ph.i.i, label %_ZN8tinyxml211XMLDocument9MarkInUseEPKNS_7XMLNodeE.exit.i

.lr.ph.i.i:                                       ; preds = %31
  %35 = getelementptr inbounds nuw i8, ptr %4, i64 168
  %36 = load ptr, ptr %35, align 8, !tbaa !68
  %wide.trip.count.i.i = zext nneg i32 %33 to i64
  br label %38

37:                                               ; preds = %38
  %indvars.iv.next.i.i = add nuw nsw i64 %indvars.iv.i.i, 1
  %exitcond.not.i.i = icmp eq i64 %indvars.iv.next.i.i, %wide.trip.count.i.i
  br i1 %exitcond.not.i.i, label %_ZN8tinyxml211XMLDocument9MarkInUseEPKNS_7XMLNodeE.exit.i, label %38, !llvm.loop !80

38:                                               ; preds = %37, %.lr.ph.i.i
  %indvars.iv.i.i = phi i64 [ 0, %.lr.ph.i.i ], [ %indvars.iv.next.i.i, %37 ]
  %39 = getelementptr inbounds nuw ptr, ptr %36, i64 %indvars.iv.i.i
  %40 = load ptr, ptr %39, align 8, !tbaa !69
  %41 = icmp eq ptr %1, %40
  br i1 %41, label %42, label %37

42:                                               ; preds = %38
  %43 = getelementptr inbounds nuw ptr, ptr %36, i64 %indvars.iv.i.i
  %44 = getelementptr ptr, ptr %36, i64 %wide.trip.count.i.i
  %45 = getelementptr i8, ptr %44, i64 -8
  %46 = load ptr, ptr %45, align 8, !tbaa !69
  store ptr %46, ptr %43, align 8, !tbaa !69
  %47 = add nsw i32 %33, -1
  store i32 %47, ptr %32, align 4, !tbaa !66
  br label %_ZN8tinyxml211XMLDocument9MarkInUseEPKNS_7XMLNodeE.exit.i

_ZN8tinyxml211XMLDocument9MarkInUseEPKNS_7XMLNodeE.exit.i: ; preds = %37, %42, %31
  %48 = getelementptr inbounds nuw i8, ptr %1, i64 96
  %49 = load ptr, ptr %48, align 8, !tbaa !65
  %50 = load ptr, ptr %49, align 8, !tbaa !63
  %51 = getelementptr inbounds nuw i8, ptr %50, i64 40
  %52 = load ptr, ptr %51, align 8
  tail call void %52(ptr noundef nonnull align 8 dereferenceable(8) %49)
  br label %_ZNK8tinyxml27XMLNode19InsertChildPreambleEPS0_.exit

_ZNK8tinyxml27XMLNode19InsertChildPreambleEPS0_.exit: ; preds = %_ZN8tinyxml27XMLNode6UnlinkEPS0_.exit.i, %_ZN8tinyxml211XMLDocument9MarkInUseEPKNS_7XMLNodeE.exit.i
  %53 = getelementptr inbounds nuw i8, ptr %0, i64 64
  %54 = load ptr, ptr %53, align 8, !tbaa !78
  %.not14 = icmp eq ptr %54, null
  br i1 %.not14, label %57, label %55

55:                                               ; preds = %_ZNK8tinyxml27XMLNode19InsertChildPreambleEPS0_.exit
  %56 = getelementptr inbounds nuw i8, ptr %54, i64 80
  store ptr %1, ptr %56, align 8, !tbaa !77
  br label %59

57:                                               ; preds = %_ZNK8tinyxml27XMLNode19InsertChildPreambleEPS0_.exit
  %58 = getelementptr inbounds nuw i8, ptr %0, i64 56
  store ptr %1, ptr %58, align 8, !tbaa !76
  br label %59

59:                                               ; preds = %57, %55
  store ptr %1, ptr %53, align 8, !tbaa !78
  %60 = getelementptr inbounds nuw i8, ptr %1, i64 72
  store ptr %54, ptr %60, align 8, !tbaa !79
  %61 = getelementptr inbounds nuw i8, ptr %1, i64 80
  store ptr null, ptr %61, align 8, !tbaa !77
  store ptr %0, ptr %8, align 8, !tbaa !72
  br label %62

62:                                               ; preds = %2, %59
  %.0 = phi ptr [ %1, %59 ], [ null, %2 ]
  ret ptr %.0
}